target datalayout = "e-m:e-p270:32:32-p271:32:32-p272:64:64-i64:64-i128:128-f80:128-n8:16:32:64-S128"
target triple = "x86_64-pc-linux-gnu"

%"struct.LIEF::PE::unwind_aarch64::UnpackedFunction::epilog_scope_t" = type <{ i32, i16, i8, i8 }>
%"struct.LIEF::PE::details::arm64_epilog_scope_t" = type { i32 }

; Function Attrs: mustprogress nounwind uwtable
define linkonce_odr hidden noundef zeroext i8 @_ZNK4LIEF2PE7details20arm64_epilog_scope_t8reservedEv(ptr noundef nonnull align 4 dereferenceable(4) %0) #1 comdat align 2 {
  %2 = alloca ptr, align 8
  store ptr %0, ptr %2, align 8, !tbaa !101
  %3 = load ptr, ptr %2, align 8
  %4 = getelementptr inbounds nuw %"struct.LIEF::PE::details::arm64_epilog_scope_t", ptr %3, i32 0, i32 0
  %5 = load i32, ptr %4, align 4, !tbaa !95
  %6 = and i32 %5, 983040
  %7 = lshr i32 %6, 18
  %8 = trunc i32 %7 to i8
  ret i8 %8
}

; Function Attrs: mustprogress nounwind uwtable
define linkonce_odr hidden noundef zeroext i8 @_ZNK4LIEF2PE7details20arm64_epilog_scope_t11start_indexEv(ptr noundef nonnull align 4 dereferenceable(4) %0) #1 comdat align 2 {
  %2 = alloca ptr, align 8
  store ptr %0, ptr %2, align 8, !tbaa !101
  %3 = load ptr, ptr %2, align 8
  %4 = getelementptr inbounds nuw %"struct.LIEF::PE::details::arm64_epilog_scope_t", ptr %3, i32 0, i32 0
  %5 = load i32, ptr %4, align 4, !tbaa !95
  %6 = and i32 %5, -4194304
  %7 = lshr i32 %6, 22
  %8 = trunc i32 %7 to i8
  ret i8 %8
}

; Function Attrs: mustprogress nounwind uwtable
define linkonce_odr hidden noundef i32 @_ZNK4LIEF2PE7details20arm64_epilog_scope_t12start_offsetEv(ptr noundef nonnull align 4 dereferenceable(4) %0) #1 comdat align 2 {
  %2 = alloca ptr, align 8
  store ptr %0, ptr %2, align 8, !tbaa !101
  %3 = load ptr, ptr %2, align 8
  %4 = getelementptr inbounds nuw %"struct.LIEF::PE::details::arm64_epilog_scope_t", ptr %3, i32 0, i32 0
  %5 = load i32, ptr %4, align 4, !tbaa !95
  %6 = and i32 %5, 262143
  ret i32 %6
}

; Function Attrs: mustprogress nounwind uwtable
define i64 @_ZN4LIEF2PE14unwind_aarch6416UnpackedFunction14epilog_scope_t8from_rawEj(i32 noundef %0) #1 align 2 {
  %2 = alloca %"struct.LIEF::PE::unwind_aarch64::UnpackedFunction::epilog_scope_t", align 4
  %3 = alloca i32, align 4
  %4 = alloca %"struct.LIEF::PE::details::arm64_epilog_scope_t", align 4
  store i32 %0, ptr %3, align 4, !tbaa !19
  call void @llvm.lifetime.start.p0(i64 4, ptr %4) #20
  %5 = getelementptr inbounds nuw %"struct.LIEF::PE::details::arm64_epilog_scope_t", ptr %4, i32 0, i32 0
  %6 = load i32, ptr %3, align 4, !tbaa !19
  store i32 %6, ptr %5, align 4, !tbaa !95
  %7 = getelementptr inbounds nuw %"struct.LIEF::PE::unwind_aarch64::UnpackedFunction::epilog_scope_t", ptr %2, i32 0, i32 0
  %8 = call noundef i32 @_ZNK4LIEF2PE7details20arm64_epilog_scope_t12start_offsetEv(ptr noundef nonnull align 4 dereferenceable(4) %4)
  store i32 %8, ptr %7, align 4, !tbaa !97
  %9 = getelementptr inbounds nuw %"struct.LIEF::PE::unwind_aarch64::UnpackedFunction::epilog_scope_t", ptr %2, i32 0, i32 1
  %10 = call noundef zeroext i8 @_ZNK4LIEF2PE7details20arm64_epilog_scope_t11start_indexEv(ptr noundef nonnull align 4 dereferenceable(4) %4)
  %11 = zext i8 %10 to i16
  store i16 %11, ptr %9, align 4, !tbaa !99
  %12 = getelementptr inbounds nuw %"struct.LIEF::PE::unwind_aarch64::UnpackedFunction::epilog_scope_t", ptr %2, i32 0, i32 2
  %13 = call noundef zeroext i8 @_ZNK4LIEF2PE7details20arm64_epilog_scope_t8reservedEv(ptr noundef nonnull align 4 dereferenceable(4) %4)
  store i8 %13, ptr %12, align 2, !tbaa !100
  call void @llvm.lifetime.end.p0(i64 4, ptr %4) #20
  %14 = load i64, ptr %2, align 4
  ret i64 %14
}