; Function Attrs: mustprogress nofree norecurse nosync nounwind willreturn memory(none) uwtable
define range(i64 0, 845524441759744) i64 @_ZN4LIEF2PE14unwind_aarch6416UnpackedFunction14epilog_scope_t8from_rawEj(i32 noundef %0) local_unnamed_addr #2 align 2 {
  %2 = and i32 %0, 262143
  %3 = lshr i32 %0, 22
  %4 = lshr i32 %0, 18
  %5 = and i32 %4, 3
  %.sroa.3.0.insert.ext = zext nneg i32 %5 to i64
  %.sroa.3.0.insert.shift = shl nuw nsw i64 %.sroa.3.0.insert.ext, 48
  %6 = and i32 %3, 255
  %.sroa.2.0.insert.ext = zext nneg i32 %6 to i64
  %.sroa.2.0.insert.shift = shl nuw nsw i64 %.sroa.2.0.insert.ext, 32
  %.sroa.2.0.insert.insert = or disjoint i64 %.sroa.3.0.insert.shift, %.sroa.2.0.insert.shift
  %.sroa.0.0.insert.ext = zext nneg i32 %2 to i64
  %.sroa.0.0.insert.insert = or disjoint i64 %.sroa.2.0.insert.insert, %.sroa.0.0.insert.ext
  ret i64 %.sroa.0.0.insert.insert
}